target datalayout = "e-m:e-p270:32:32-p271:32:32-p272:64:64-i64:64-i128:128-f80:128-n8:16:32:64-S128"
target triple = "x86_64-pc-linux-gnu"

%struct.darktable_t = type { %struct.dt_codepath_t, i32, i32, ptr, ptr, ptr, ptr, ptr, ptr, ptr, ptr, ptr, ptr, ptr, ptr, ptr, ptr, ptr, ptr, ptr, ptr, ptr, ptr, ptr, ptr, ptr, ptr, ptr, ptr, ptr, [64 x %struct.dt_pthread_mutex_t], %struct.dt_pthread_mutex_t, %struct.dt_pthread_mutex_t, %struct.dt_pthread_mutex_t, %struct.dt_pthread_mutex_t, %struct.dt_pthread_mutex_t, ptr, ptr, ptr, ptr, ptr, ptr, ptr, ptr, ptr, ptr, ptr, ptr, ptr, %struct.dt_lua_state_t, ptr, double, ptr, i32, [47 x i32], i32, i32, ptr, ptr, %struct.dt_sys_resources_t, %struct.dt_backthumb_t, %struct.dt_gimp_t }
%struct.dt_codepath_t = type { i8, [3 x i8] }
%struct.dt_pthread_mutex_t = type { %union.pthread_mutex_t }
%union.pthread_mutex_t = type { %struct.__pthread_mutex_s }
%struct.__pthread_mutex_s = type { i32, i32, i32, i32, i32, i16, i16, %struct.__pthread_internal_list }
%struct.__pthread_internal_list = type { ptr, ptr }
%struct.dt_lua_state_t = type { i32 }
%struct.dt_sys_resources_t = type { i64, i64, ptr, ptr, i32 }
%struct.dt_backthumb_t = type { double, double, i32, i32, i32, i32 }
%struct.dt_gimp_t = type { i32, ptr, ptr, i32, i32 }

@darktable = external global %struct.darktable_t, align 8
@.str.18 = private unnamed_addr constant [123 x i8] c"generated/home/dtcxzyw/WorkSpace/Projects/compilers/llvm-opt-benchmark/bench/darktable/darktable/src/gui/import_metadata.c\00", align 1
@.str.23 = private unnamed_addr constant [61 x i8] c"[signal] disconnect %d signals for %s; %s:%d, function: %s()\00", align 1
@.str.24 = private unnamed_addr constant [9 x i8] c"metadata\00", align 1
@__FUNCTION__.dt_import_metadata_cleanup = private unnamed_addr constant [27 x i8] c"dt_import_metadata_cleanup\00", align 1

; Function Attrs: nounwind uwtable
define void @dt_import_metadata_cleanup(ptr noundef %0) #0 {
  %2 = alloca ptr, align 8
  %3 = alloca i32, align 4
  store ptr %0, ptr %2, align 8, !tbaa !6
  br label %4

4:                                                ; preds = %1
  call void @llvm.lifetime.start.p0(i64 4, ptr %3) #7
  %5 = load ptr, ptr getelementptr inbounds nuw (%struct.darktable_t, ptr @darktable, i32 0, i32 13), align 8, !tbaa !69
  %6 = load ptr, ptr %2, align 8, !tbaa !6
  %7 = call i32 @dt_control_signal_disconnect_all(ptr noundef %5, ptr noundef %6)
  store i32 %7, ptr %3, align 4, !tbaa !61
  %8 = load i32, ptr %3, align 4, !tbaa !61
  %9 = icmp ne i32 %8, 0
  br i1 %9, label %10, label %29

10:                                               ; preds = %4
  %11 = load i32, ptr getelementptr inbounds nuw (%struct.darktable_t, ptr @darktable, i32 0, i32 53), align 8, !tbaa !67
  %12 = and i32 %11, 4
  %13 = icmp ne i32 %12, 0
  br i1 %13, label %14, label %29

14:                                               ; preds = %10
  br label %15

15:                                               ; preds = %14
  %16 = load i32, ptr getelementptr inbounds nuw (%struct.darktable_t, ptr @darktable, i32 0, i32 2), align 8, !tbaa !68
  %17 = and i32 1048576, %16
  %18 = icmp ne i32 %17, 0
  br i1 %18, label %19, label %26

19:                                               ; preds = %15
  %20 = load i32, ptr getelementptr inbounds nuw (%struct.darktable_t, ptr @darktable, i32 0, i32 2), align 8, !tbaa !68
  %21 = xor i32 %20, -1
  %22 = and i32 0, %21
  %23 = icmp ne i32 %22, 0
  br i1 %23, label %26, label %24

24:                                               ; preds = %19
  %25 = load i32, ptr %3, align 4, !tbaa !61
  call void (ptr, ...) @dt_print_ext(ptr noundef @.str.23, i32 noundef %25, ptr noundef @.str.24, ptr noundef @.str.18, i32 noundef 511, ptr noundef @__FUNCTION__.dt_import_metadata_cleanup)
  br label %26

26:                                               ; preds = %24, %19, %15
  br label %27

27:                                               ; preds = %26
  br label %28

28:                                               ; preds = %27
  br label %29

29:                                               ; preds = %28, %10, %4
  call void @llvm.lifetime.end.p0(i64 4, ptr %3) #7
  br label %30

30:                                               ; preds = %29
  ret void
}