; Function Attrs: nounwind uwtable
define void @dt_import_metadata_cleanup(ptr noundef %0) local_unnamed_addr #0 {
  %2 = load ptr, ptr getelementptr inbounds nuw (i8, ptr @darktable, i64 96), align 8, !tbaa !64
  %3 = tail call i32 @dt_control_signal_disconnect_all(ptr noundef %2, ptr noundef %0) #10
  %.not = icmp eq i32 %3, 0
  br i1 %.not, label %11, label %4

4:                                                ; preds = %1
  %5 = load i32, ptr getelementptr inbounds nuw (i8, ptr @darktable, i64 3128), align 8, !tbaa !62
  %6 = and i32 %5, 4
  %.not2 = icmp eq i32 %6, 0
  br i1 %.not2, label %11, label %7

7:                                                ; preds = %4
  %8 = load i32, ptr getelementptr inbounds nuw (i8, ptr @darktable, i64 8), align 8, !tbaa !63
  %9 = and i32 %8, 1048576
  %.not3 = icmp eq i32 %9, 0
  br i1 %.not3, label %11, label %10

10:                                               ; preds = %7
  tail call void (ptr, ...) @dt_print_ext(ptr noundef nonnull @.str.23, i32 noundef %3, ptr noundef nonnull @.str.24, ptr noundef nonnull @.str.18, i32 noundef 511, ptr noundef nonnull @__FUNCTION__.dt_import_metadata_cleanup) #10
  br label %11

11:                                               ; preds = %7, %10, %4, %1
  ret void
}